target datalayout = "e-m:e-p270:32:32-p271:32:32-p272:64:64-i64:64-i128:128-f80:128-n8:16:32:64-S128"
target triple = "x86_64-pc-linux-gnu"

%"class.folly::AsyncUDPSocket" = type { %"class.folly::EventHandler", i16, ptr, ptr, %"class.folly::SocketAddress", %"struct.folly::NetworkSocket", i32, %"class.folly::SocketAddress", %"class.folly::SocketAddress", i8, i8, i8, i8, i8, i8, i32, i32, i32, %"class.folly::Optional.13", %"class.folly::Optional.13", %"class.folly::Optional.15", %"class.folly::Optional.13", ptr, i8, i8, i64, i64, i32, %"class.std::unordered_map", %"class.folly::Function", %"class.std::map", %"class.std::map", ptr, %"class.std::map.26", [8 x i8], %"class.folly::Function.31", %"class.folly::netops::DispatcherContainer" }
%"class.folly::EventHandler" = type { ptr, %"class.folly::EventBaseEvent", ptr }
%"class.folly::EventBaseEvent" = type { %struct.event, ptr, ptr, ptr, %"struct.folly::EventCallback" }
%struct.event = type { %struct.event_callback, %union.anon.2, i32, ptr, %union.anon.4, i16, i16, %struct.timeval }
%struct.event_callback = type { %struct.anon, i16, i8, i8, %union.anon.1, ptr }
%struct.anon = type { ptr, ptr }
%union.anon.1 = type { ptr }
%union.anon.2 = type { %struct.anon.3 }
%struct.anon.3 = type { ptr, ptr }
%union.anon.4 = type { %struct.anon.5 }
%struct.anon.5 = type { %struct.anon.6, %struct.timeval }
%struct.anon.6 = type { ptr, ptr }
%struct.timeval = type { i64, i64 }
%"struct.folly::EventCallback" = type { i32, %union.anon.9 }
%union.anon.9 = type { ptr }
%"struct.folly::NetworkSocket" = type { i32 }
%"class.folly::SocketAddress" = type <{ %"union.folly::SocketAddress::AddrStorage", i16, i8, [5 x i8] }>
%"union.folly::SocketAddress::AddrStorage" = type { %"struct.folly::SocketAddress::ExternalUnixAddr", [8 x i8] }
%"struct.folly::SocketAddress::ExternalUnixAddr" = type { ptr, i32 }
%"class.folly::Optional.15" = type { %"struct.folly::Optional<folly::AsyncUDPSocket::TXTime>::StorageTriviallyDestructible" }
%"struct.folly::Optional<folly::AsyncUDPSocket::TXTime>::StorageTriviallyDestructible" = type { %union.anon.16, i8, [3 x i8] }
%union.anon.16 = type { %"struct.folly::AsyncUDPSocket::TXTime" }
%"struct.folly::AsyncUDPSocket::TXTime" = type <{ i32, i8, [3 x i8] }>
%"class.folly::Optional.13" = type { %"struct.folly::Optional<int>::StorageTriviallyDestructible" }
%"struct.folly::Optional<int>::StorageTriviallyDestructible" = type <{ %union.anon.14, i8, [3 x i8] }>
%union.anon.14 = type { i32 }
%"class.std::unordered_map" = type { %"class.std::_Hashtable" }
%"class.std::_Hashtable" = type { ptr, i64, %"struct.std::__detail::_Hash_node_base", i64, %"struct.std::__detail::_Prime_rehash_policy", ptr }
%"struct.std::__detail::_Hash_node_base" = type { ptr }
%"struct.std::__detail::_Prime_rehash_policy" = type { float, i64 }
%"class.folly::Function" = type { %"union.folly::detail::function::Data", ptr, ptr }
%"union.folly::detail::function::Data" = type { %"struct.folly::detail::function::Data::BigTrivialLayout", [24 x i8] }
%"struct.folly::detail::function::Data::BigTrivialLayout" = type { ptr, i64, i64 }
%"class.std::map" = type { %"class.std::_Rb_tree" }
%"class.std::_Rb_tree" = type { %"struct.std::_Rb_tree<folly::SocketOptionKey, std::pair<const folly::SocketOptionKey, int>, std::_Select1st<std::pair<const folly::SocketOptionKey, int>>, std::less<folly::SocketOptionKey>>::_Rb_tree_impl" }
%"struct.std::_Rb_tree<folly::SocketOptionKey, std::pair<const folly::SocketOptionKey, int>, std::_Select1st<std::pair<const folly::SocketOptionKey, int>>, std::less<folly::SocketOptionKey>>::_Rb_tree_impl" = type { [8 x i8], %"struct.std::_Rb_tree_header" }
%"struct.std::_Rb_tree_header" = type { %"struct.std::_Rb_tree_node_base", i64 }
%"struct.std::_Rb_tree_node_base" = type { i32, ptr, ptr, ptr }
%"class.std::map.26" = type { %"class.std::_Rb_tree.27" }
%"class.std::_Rb_tree.27" = type { %"struct.std::_Rb_tree<folly::SocketOptionKey, std::pair<const folly::SocketOptionKey, std::__cxx11::basic_string<char>>, std::_Select1st<std::pair<const folly::SocketOptionKey, std::__cxx11::basic_string<char>>>, std::less<folly::SocketOptionKey>>::_Rb_tree_impl" }
%"struct.std::_Rb_tree<folly::SocketOptionKey, std::pair<const folly::SocketOptionKey, std::__cxx11::basic_string<char>>, std::_Select1st<std::pair<const folly::SocketOptionKey, std::__cxx11::basic_string<char>>>, std::less<folly::SocketOptionKey>>::_Rb_tree_impl" = type { [8 x i8], %"struct.std::_Rb_tree_header" }
%"class.folly::Function.31" = type { %"union.folly::detail::function::Data", ptr, ptr }
%"class.folly::netops::DispatcherContainer" = type { %"class.std::shared_ptr" }
%"class.std::shared_ptr" = type { %"class.std::__shared_ptr" }
%"class.std::__shared_ptr" = type { ptr, %"class.std::__shared_count" }
%"class.std::__shared_count" = type { ptr }
%"class.std::runtime_error" = type { %"class.std::exception", %"struct.std::__cow_string" }
%"class.std::exception" = type { ptr }
%"struct.std::__cow_string" = type { %union.anon.148 }
%union.anon.148 = type { ptr }
%"class.folly::OptionalEmptyException" = type { %"class.std::runtime_error" }
%"struct.folly::netops::sock_txtime" = type { i32, i32 }

@_ZTIN5folly22OptionalEmptyExceptionE = linkonce_odr constant { ptr, ptr, ptr } { ptr getelementptr inbounds (ptr, ptr @_ZTVN10__cxxabiv120__si_class_type_infoE, i64 2), ptr @_ZTSN5folly22OptionalEmptyExceptionE, ptr @_ZTISt13runtime_error }, comdat, align 8
@_ZTVN5folly22OptionalEmptyExceptionE = linkonce_odr unnamed_addr constant { [5 x ptr] } { [5 x ptr] [ptr null, ptr @_ZTIN5folly22OptionalEmptyExceptionE, ptr @_ZNSt13runtime_errorD2Ev, ptr @_ZN5folly22OptionalEmptyExceptionD0Ev, ptr @_ZNKSt13runtime_error4whatEv] }, comdat, align 8
@.str.45 = private unnamed_addr constant [35 x i8] c"Empty Optional cannot be unwrapped\00", align 1

; Function Attrs: inlinehint mustprogress nounwind uwtable
define linkonce_odr void @_ZN5folly22OptionalEmptyExceptionC2EOS0_(ptr noundef nonnull align 8 dereferenceable(16) %0, ptr noundef nonnull align 8 dereferenceable(16) %1) unnamed_addr #4 comdat align 2 {
  %3 = alloca ptr, align 8
  %4 = alloca ptr, align 8
  store ptr %0, ptr %3, align 8, !tbaa !538
  store ptr %1, ptr %4, align 8, !tbaa !538
  %5 = load ptr, ptr %3, align 8
  %6 = load ptr, ptr %4, align 8, !tbaa !538
  call void @_ZNSt13runtime_errorC2EOS_(ptr noundef nonnull align 8 dereferenceable(16) %5, ptr noundef nonnull align 8 dereferenceable(16) %6) #25
  store ptr getelementptr inbounds inrange(-16, 24) ({ [5 x ptr] }, ptr @_ZTVN5folly22OptionalEmptyExceptionE, i32 0, i32 0, i32 2), ptr %5, align 8, !tbaa !96
  ret void
}

; Function Attrs: cold mustprogress noinline noreturn optsize uwtable
define linkonce_odr void @_ZN5folly15throw_exceptionINS_22OptionalEmptyExceptionEEEvOT_(ptr noundef nonnull align 8 dereferenceable(16) %0) #10 comdat {
  %2 = alloca ptr, align 8
  store ptr %0, ptr %2, align 8, !tbaa !538
  %3 = call ptr @__cxa_allocate_exception(i64 16) #25
  %4 = load ptr, ptr %2, align 8, !tbaa !538
  call void @_ZN5folly22OptionalEmptyExceptionC2EOS0_(ptr noundef nonnull align 8 dereferenceable(16) %3, ptr noundef nonnull align 8 dereferenceable(16) %4) #25
  call void @__cxa_throw(ptr %3, ptr @_ZTIN5folly22OptionalEmptyExceptionE, ptr @_ZNSt13runtime_errorD2Ev) #33
  unreachable
}

; Function Attrs: mustprogress uwtable
define linkonce_odr void @_ZN5folly22OptionalEmptyExceptionC2Ev(ptr noundef nonnull align 8 dereferenceable(16) %0) unnamed_addr #1 comdat align 2 {
  %2 = alloca ptr, align 8
  store ptr %0, ptr %2, align 8, !tbaa !538
  %3 = load ptr, ptr %2, align 8
  call void @_ZNSt13runtime_errorC2EPKc(ptr noundef nonnull align 8 dereferenceable(16) %3, ptr noundef @.str.45)
  store ptr getelementptr inbounds inrange(-16, 24) ({ [5 x ptr] }, ptr @_ZTVN5folly22OptionalEmptyExceptionE, i32 0, i32 0, i32 2), ptr %3, align 8, !tbaa !96
  ret void
}

; Function Attrs: cold mustprogress noinline noreturn optsize uwtable
define linkonce_odr void @_ZN5folly6detail16throw_exception_INS_22OptionalEmptyExceptionEJEEEvDpT0_() #10 comdat personality ptr @__gxx_personality_v0 {
  %1 = alloca %"class.folly::OptionalEmptyException", align 8
  %2 = alloca ptr, align 8
  %3 = alloca i32, align 4
  call void @llvm.lifetime.start.p0(i64 16, ptr %1) #25
  call void @_ZN5folly22OptionalEmptyExceptionC2Ev(ptr noundef nonnull align 8 dereferenceable(16) %1)
  invoke void @_ZN5folly15throw_exceptionINS_22OptionalEmptyExceptionEEEvOT_(ptr noundef nonnull align 8 dereferenceable(16) %1) #35
          to label %4 unwind label %5

4:                                                ; preds = %0
  unreachable

5:                                                ; preds = %0
  %6 = landingpad { ptr, i32 }
          cleanup
  %7 = extractvalue { ptr, i32 } %6, 0
  store ptr %7, ptr %2, align 8
  %8 = extractvalue { ptr, i32 } %6, 1
  store i32 %8, ptr %3, align 4
  call void @_ZNSt13runtime_errorD2Ev(ptr noundef nonnull align 8 dereferenceable(16) %1) #25
  call void @llvm.lifetime.end.p0(i64 16, ptr %1) #25
  br label %9

9:                                                ; preds = %5
  %10 = load ptr, ptr %2, align 8
  %11 = load i32, ptr %3, align 4
  %12 = insertvalue { ptr, i32 } poison, ptr %10, 0
  %13 = insertvalue { ptr, i32 } %12, i32 %11, 1
  resume { ptr, i32 } %13
}

; Function Attrs: alwaysinline mustprogress noreturn uwtable
define linkonce_odr hidden void @_ZN5folly15throw_exceptionINS_22OptionalEmptyExceptionEJEEEvDpOT0_() #9 comdat {
  call void @_ZN5folly6detail16throw_exception_INS_22OptionalEmptyExceptionEJEEEvDpT0_() #35
  unreachable
}

; Function Attrs: mustprogress nounwind uwtable
define linkonce_odr void @_ZN5folly8OptionalINS_14AsyncUDPSocket6TXTimeEE9constructIJRKS2_EEEvDpOT_(ptr noundef nonnull align 4 dereferenceable(12) %0, ptr noundef nonnull align 4 dereferenceable(5) %1) #0 comdat align 2 {
  %3 = alloca ptr, align 8
  %4 = alloca ptr, align 8
  %5 = alloca ptr, align 8
  store ptr %0, ptr %3, align 8, !tbaa !210
  store ptr %1, ptr %4, align 8, !tbaa !753
  %6 = load ptr, ptr %3, align 8
  call void @llvm.lifetime.start.p0(i64 8, ptr %5) #25
  %7 = getelementptr inbounds nuw %"class.folly::Optional.15", ptr %6, i32 0, i32 0
  %8 = getelementptr inbounds nuw %"struct.folly::Optional<folly::AsyncUDPSocket::TXTime>::StorageTriviallyDestructible", ptr %7, i32 0, i32 0
  store ptr %8, ptr %5, align 8, !tbaa !198
  %9 = load ptr, ptr %5, align 8, !tbaa !198
  %10 = load ptr, ptr %4, align 8, !tbaa !753
  call void @llvm.memcpy.p0.p0.i64(ptr align 4 %9, ptr align 4 %10, i64 8, i1 false), !tbaa.struct !752
  %11 = getelementptr inbounds nuw %"class.folly::Optional.15", ptr %6, i32 0, i32 0
  %12 = getelementptr inbounds nuw %"struct.folly::Optional<folly::AsyncUDPSocket::TXTime>::StorageTriviallyDestructible", ptr %11, i32 0, i32 1
  store i8 1, ptr %12, align 4, !tbaa !531
  call void @llvm.lifetime.end.p0(i64 8, ptr %5) #25
  ret void
}

; Function Attrs: mustprogress nounwind uwtable
define linkonce_odr noundef zeroext i1 @_ZNK5folly8OptionalINS_14AsyncUDPSocket6TXTimeEE8hasValueEv(ptr noundef nonnull align 4 dereferenceable(12) %0) #0 comdat align 2 {
  %2 = alloca ptr, align 8
  store ptr %0, ptr %2, align 8, !tbaa !210
  %3 = load ptr, ptr %2, align 8
  %4 = call noundef zeroext i1 @_ZNK5folly8OptionalINS_14AsyncUDPSocket6TXTimeEE9has_valueEv(ptr noundef nonnull align 4 dereferenceable(12) %3) #25
  ret i1 %4
}

; Function Attrs: mustprogress uwtable
define linkonce_odr void @_ZNK5folly8OptionalINS_14AsyncUDPSocket6TXTimeEE13require_valueEv(ptr noundef nonnull align 4 dereferenceable(12) %0) #1 comdat align 2 {
  %2 = alloca ptr, align 8
  store ptr %0, ptr %2, align 8, !tbaa !210
  %3 = load ptr, ptr %2, align 8
  %4 = getelementptr inbounds nuw %"class.folly::Optional.15", ptr %3, i32 0, i32 0
  %5 = getelementptr inbounds nuw %"struct.folly::Optional<folly::AsyncUDPSocket::TXTime>::StorageTriviallyDestructible", ptr %4, i32 0, i32 1
  %6 = load i8, ptr %5, align 4, !tbaa !531, !range !114, !noundef !115
  %7 = trunc i8 %6 to i1
  br i1 %7, label %9, label %8

8:                                                ; preds = %1
  call void @_ZN5folly15throw_exceptionINS_22OptionalEmptyExceptionEJEEEvDpOT0_() #33
  unreachable

9:                                                ; preds = %1
  ret void
}

; Function Attrs: mustprogress uwtable
define linkonce_odr void @_ZN5folly8OptionalINS_14AsyncUDPSocket6TXTimeEE6assignERKS2_(ptr noundef nonnull align 4 dereferenceable(12) %0, ptr noundef nonnull align 4 dereferenceable(5) %1) #1 comdat align 2 {
  %3 = alloca ptr, align 8
  %4 = alloca ptr, align 8
  store ptr %0, ptr %3, align 8, !tbaa !210
  store ptr %1, ptr %4, align 8, !tbaa !753
  %5 = load ptr, ptr %3, align 8
  %6 = call noundef zeroext i1 @_ZNK5folly8OptionalINS_14AsyncUDPSocket6TXTimeEE8hasValueEv(ptr noundef nonnull align 4 dereferenceable(12) %5) #25
  br i1 %6, label %7, label %11

7:                                                ; preds = %2
  %8 = load ptr, ptr %4, align 8, !tbaa !753
  %9 = getelementptr inbounds nuw %"class.folly::Optional.15", ptr %5, i32 0, i32 0
  %10 = getelementptr inbounds nuw %"struct.folly::Optional<folly::AsyncUDPSocket::TXTime>::StorageTriviallyDestructible", ptr %9, i32 0, i32 0
  call void @llvm.memcpy.p0.p0.i64(ptr align 4 %10, ptr align 4 %8, i64 5, i1 false), !tbaa.struct !752
  br label %13

11:                                               ; preds = %2
  %12 = load ptr, ptr %4, align 8, !tbaa !753
  call void @_ZN5folly8OptionalINS_14AsyncUDPSocket6TXTimeEE9constructIJRKS2_EEEvDpOT_(ptr noundef nonnull align 4 dereferenceable(12) %5, ptr noundef nonnull align 4 dereferenceable(5) %12)
  br label %13

13:                                               ; preds = %11, %7
  ret void
}

; Function Attrs: mustprogress uwtable
define linkonce_odr noundef nonnull align 4 dereferenceable(5) ptr @_ZNR5folly8OptionalINS_14AsyncUDPSocket6TXTimeEE5valueEv(ptr noundef nonnull align 4 dereferenceable(12) %0) #1 comdat align 2 {
  %2 = alloca ptr, align 8
  store ptr %0, ptr %2, align 8, !tbaa !210
  %3 = load ptr, ptr %2, align 8
  call void @_ZNK5folly8OptionalINS_14AsyncUDPSocket6TXTimeEE13require_valueEv(ptr noundef nonnull align 4 dereferenceable(12) %3)
  %4 = getelementptr inbounds nuw %"class.folly::Optional.15", ptr %3, i32 0, i32 0
  %5 = getelementptr inbounds nuw %"struct.folly::Optional<folly::AsyncUDPSocket::TXTime>::StorageTriviallyDestructible", ptr %4, i32 0, i32 0
  ret ptr %5
}

; Function Attrs: mustprogress uwtable
define linkonce_odr noundef nonnull align 4 dereferenceable(12) ptr @_ZN5folly8OptionalINS_14AsyncUDPSocket6TXTimeEEaSIRS2_EERS3_OT_(ptr noundef nonnull align 4 dereferenceable(12) %0, ptr noundef nonnull align 4 dereferenceable(5) %1) #1 comdat align 2 {
  %3 = alloca ptr, align 8
  %4 = alloca ptr, align 8
  store ptr %0, ptr %3, align 8, !tbaa !210
  store ptr %1, ptr %4, align 8, !tbaa !753
  %5 = load ptr, ptr %3, align 8
  %6 = load ptr, ptr %4, align 8, !tbaa !753
  call void @_ZN5folly8OptionalINS_14AsyncUDPSocket6TXTimeEE6assignERKS2_(ptr noundef nonnull align 4 dereferenceable(12) %5, ptr noundef nonnull align 4 dereferenceable(5) %6)
  ret ptr %5
}

; Function Attrs: inlinehint mustprogress nounwind uwtable
define linkonce_odr void @_ZN5folly14AsyncUDPSocket6TXTimeC2Ev(ptr noundef nonnull align 4 dereferenceable(5) %0) unnamed_addr #4 comdat align 2 {
  %2 = alloca ptr, align 8
  store ptr %0, ptr %2, align 8, !tbaa !753
  %3 = load ptr, ptr %2, align 8
  %4 = getelementptr inbounds nuw %"struct.folly::AsyncUDPSocket::TXTime", ptr %3, i32 0, i32 0
  store i32 -1, ptr %4, align 4, !tbaa !127
  %5 = getelementptr inbounds nuw %"struct.folly::AsyncUDPSocket::TXTime", ptr %3, i32 0, i32 1
  store i8 0, ptr %5, align 4, !tbaa !751
  ret void
}

; Function Attrs: mustprogress nounwind uwtable
define linkonce_odr noundef zeroext i1 @_ZNK5folly8OptionalINS_14AsyncUDPSocket6TXTimeEE9has_valueEv(ptr noundef nonnull align 4 dereferenceable(12) %0) #0 comdat align 2 {
  %2 = alloca ptr, align 8
  store ptr %0, ptr %2, align 8, !tbaa !210
  %3 = load ptr, ptr %2, align 8
  %4 = getelementptr inbounds nuw %"class.folly::Optional.15", ptr %3, i32 0, i32 0
  %5 = getelementptr inbounds nuw %"struct.folly::Optional<folly::AsyncUDPSocket::TXTime>::StorageTriviallyDestructible", ptr %4, i32 0, i32 1
  %6 = load i8, ptr %5, align 4, !tbaa !531, !range !114, !noundef !115
  %7 = trunc i8 %6 to i1
  ret i1 %7
}

; Function Attrs: mustprogress uwtable
define i64 @_ZN5folly14AsyncUDPSocket9getTXTimeEv(ptr noundef nonnull align 16 dereferenceable(768) %0) #1 align 2 {
  %2 = alloca %"struct.folly::AsyncUDPSocket::TXTime", align 4
  %3 = alloca ptr, align 8
  %4 = alloca %"struct.folly::AsyncUDPSocket::TXTime", align 4
  %5 = alloca %"struct.folly::netops::sock_txtime", align 4
  %6 = alloca i32, align 4
  %7 = alloca %"struct.folly::NetworkSocket", align 4
  store ptr %0, ptr %3, align 8, !tbaa !7
  %8 = load ptr, ptr %3, align 8
  %9 = getelementptr inbounds nuw %"class.folly::AsyncUDPSocket", ptr %8, i32 0, i32 20
  %10 = call noundef zeroext i1 @_ZNK5folly8OptionalINS_14AsyncUDPSocket6TXTimeEE9has_valueEv(ptr noundef nonnull align 4 dereferenceable(12) %9) #25
  %11 = xor i1 %10, true
  %12 = zext i1 %11 to i64
  %13 = call i64 @llvm.expect.i64(i64 %12, i64 0)
  %14 = icmp ne i64 %13, 0
  br i1 %14, label %15, label %34

15:                                               ; preds = %1
  call void @llvm.lifetime.start.p0(i64 8, ptr %4) #25
  call void @_ZN5folly14AsyncUDPSocket6TXTimeC2Ev(ptr noundef nonnull align 4 dereferenceable(5) %4) #25
  call void @llvm.lifetime.start.p0(i64 8, ptr %5) #25
  call void @llvm.memset.p0.i64(ptr align 4 %5, i8 0, i64 8, i1 false)
  call void @llvm.lifetime.start.p0(i64 4, ptr %6) #25
  store i32 8, ptr %6, align 4, !tbaa !74
  %16 = getelementptr inbounds nuw %"class.folly::AsyncUDPSocket", ptr %8, i32 0, i32 5
  call void @llvm.memcpy.p0.p0.i64(ptr align 4 %7, ptr align 16 %16, i64 4, i1 false), !tbaa.struct !77
  %17 = getelementptr inbounds nuw %"struct.folly::NetworkSocket", ptr %7, i32 0, i32 0
  %18 = load i32, ptr %17, align 4
  %19 = call noundef i32 @_ZN5folly6netops10getsockoptENS_13NetworkSocketEiiPvPj(i32 %18, i32 noundef 1, i32 noundef 61, ptr noundef %5, ptr noundef %6)
  %20 = icmp ne i32 %19, 0
  br i1 %20, label %31, label %21

21:                                               ; preds = %15
  %22 = getelementptr inbounds nuw %"struct.folly::netops::sock_txtime", ptr %5, i32 0, i32 0
  %23 = load i32, ptr %22, align 4, !tbaa !748
  %24 = getelementptr inbounds nuw %"struct.folly::AsyncUDPSocket::TXTime", ptr %4, i32 0, i32 0
  store i32 %23, ptr %24, align 4, !tbaa !127
  %25 = getelementptr inbounds nuw %"struct.folly::netops::sock_txtime", ptr %5, i32 0, i32 1
  %26 = load i32, ptr %25, align 4, !tbaa !750
  %27 = and i32 %26, 1
  %28 = icmp ne i32 %27, 0
  %29 = getelementptr inbounds nuw %"struct.folly::AsyncUDPSocket::TXTime", ptr %4, i32 0, i32 1
  %30 = zext i1 %28 to i8
  store i8 %30, ptr %29, align 4, !tbaa !751
  br label %31

31:                                               ; preds = %21, %15
  %32 = getelementptr inbounds nuw %"class.folly::AsyncUDPSocket", ptr %8, i32 0, i32 20
  %33 = call noundef nonnull align 4 dereferenceable(12) ptr @_ZN5folly8OptionalINS_14AsyncUDPSocket6TXTimeEEaSIRS2_EERS3_OT_(ptr noundef nonnull align 4 dereferenceable(12) %32, ptr noundef nonnull align 4 dereferenceable(5) %4)
  call void @llvm.lifetime.end.p0(i64 4, ptr %6) #25
  call void @llvm.lifetime.end.p0(i64 8, ptr %5) #25
  call void @llvm.lifetime.end.p0(i64 8, ptr %4) #25
  br label %34

34:                                               ; preds = %31, %1
  %35 = getelementptr inbounds nuw %"class.folly::AsyncUDPSocket", ptr %8, i32 0, i32 20
  %36 = call noundef nonnull align 4 dereferenceable(5) ptr @_ZNR5folly8OptionalINS_14AsyncUDPSocket6TXTimeEE5valueEv(ptr noundef nonnull align 4 dereferenceable(12) %35)
  call void @llvm.memcpy.p0.p0.i64(ptr align 4 %2, ptr align 4 %36, i64 8, i1 false), !tbaa.struct !752
  %37 = load i64, ptr %2, align 4
  ret i64 %37
}