; Function Attrs: mustprogress uwtable
define i64 @_ZN5folly14AsyncUDPSocket9getTXTimeEv(ptr noundef nonnull align 16 captures(none) dereferenceable(768) %0) local_unnamed_addr #1 align 2 {
  %2 = alloca %"struct.folly::netops::sock_txtime", align 8
  %3 = alloca i32, align 4
  %4 = getelementptr inbounds nuw i8, ptr %0, i64 348
  %5 = getelementptr inbounds nuw i8, ptr %0, i64 356
  %6 = load i8, ptr %5, align 4, !tbaa !145, !range !21, !noundef !22
  %7 = trunc nuw i8 %6 to i1
  br i1 %7, label %_ZNR5folly8OptionalINS_14AsyncUDPSocket6TXTimeEE5valueEv.exit, label %8, !prof !103

8:                                                ; preds = %1
  call void @llvm.lifetime.start.p0(i64 8, ptr nonnull %2) #36
  store i64 0, ptr %2, align 8
  call void @llvm.lifetime.start.p0(i64 4, ptr nonnull %3) #36
  store i32 8, ptr %3, align 4, !tbaa !34
  %9 = getelementptr inbounds nuw i8, ptr %0, i64 240
  %.sroa.0.0.copyload = load i32, ptr %9, align 16, !tbaa !34
  %10 = call noundef i32 @_ZN5folly6netops10getsockoptENS_13NetworkSocketEiiPvPj(i32 %.sroa.0.0.copyload, i32 noundef 1, i32 noundef 61, ptr noundef nonnull %2, ptr noundef nonnull %3)
  %.not = icmp eq i32 %10, 0
  %11 = load i32, ptr %2, align 8
  %12 = getelementptr inbounds nuw i8, ptr %2, i64 4
  %13 = load i32, ptr %12, align 4
  %14 = trunc i32 %13 to i8
  %15 = and i8 %14, 1
  %.sroa.6.0 = select i1 %.not, i8 %15, i8 0
  %.sroa.0.0 = select i1 %.not, i32 %11, i32 -1
  %16 = load i8, ptr %5, align 4, !tbaa !145, !range !21, !noundef !22
  %17 = trunc nuw i8 %16 to i1
  br i1 %17, label %18, label %19

18:                                               ; preds = %8
  store i32 %.sroa.0.0, ptr %4, align 4, !tbaa !34
  %.sroa.6.0..sroa_idx = getelementptr inbounds nuw i8, ptr %0, i64 352
  store i8 %.sroa.6.0, ptr %.sroa.6.0..sroa_idx, align 16, !tbaa !194
  br label %_ZN5folly8OptionalINS_14AsyncUDPSocket6TXTimeEEaSIRS2_EERS3_OT_.exit

19:                                               ; preds = %8
  %.sroa.6.0.insert.ext = zext nneg i8 %.sroa.6.0 to i64
  %.sroa.6.0.insert.shift = shl nuw nsw i64 %.sroa.6.0.insert.ext, 32
  %.sroa.0.0.insert.ext = zext i32 %.sroa.0.0 to i64
  %.sroa.0.0.insert.insert = or disjoint i64 %.sroa.6.0.insert.shift, %.sroa.0.0.insert.ext
  store i64 %.sroa.0.0.insert.insert, ptr %4, align 4
  store i8 1, ptr %5, align 4, !tbaa !145
  br label %_ZN5folly8OptionalINS_14AsyncUDPSocket6TXTimeEEaSIRS2_EERS3_OT_.exit

_ZN5folly8OptionalINS_14AsyncUDPSocket6TXTimeEEaSIRS2_EERS3_OT_.exit: ; preds = %18, %19
  call void @llvm.lifetime.end.p0(i64 4, ptr nonnull %3) #36
  call void @llvm.lifetime.end.p0(i64 8, ptr nonnull %2) #36
  br label %_ZNR5folly8OptionalINS_14AsyncUDPSocket6TXTimeEE5valueEv.exit

_ZNR5folly8OptionalINS_14AsyncUDPSocket6TXTimeEE5valueEv.exit: ; preds = %1, %_ZN5folly8OptionalINS_14AsyncUDPSocket6TXTimeEEaSIRS2_EERS3_OT_.exit
  %.sroa.01.0.copyload = load i64, ptr %4, align 4
  ret i64 %.sroa.01.0.copyload
}